target datalayout = "e-m:e-p270:32:32-p271:32:32-p272:64:64-i64:64-i128:128-f80:128-n8:16:32:64-S128"
target triple = "x86_64-pc-linux-gnu"

%struct.VC2EncContext = type { ptr, %struct.PutBitContext, [3 x %struct.Plane], ptr, %struct.DiracVersionInfo, ptr, [3 x %struct.TransformArgs], i32, i32, i32, i32, i32, i32, i32, [5 x [4 x i8]], i32, [116 x [2 x i32]], i32, i32, i32, i32, i32, i32, i32, i32, i32, i32, i32, double, i32, i32, i32, i32, i32, i32, i32, i32, i32 }
%struct.PutBitContext = type { i32, i32, ptr, ptr, ptr }
%struct.Plane = type { [5 x [4 x %struct.SubBand]], ptr, i32, i32, i32, i32, i64 }
%struct.SubBand = type { ptr, i64, i32, i32 }
%struct.DiracVersionInfo = type { i32, i32 }
%struct.TransformArgs = type { ptr, ptr, ptr, i64, i32, %struct.VC2TransformContext }
%struct.VC2TransformContext = type { ptr, i32, [7 x ptr] }

@.str.44 = private unnamed_addr constant [5 x i8] c"BBCD\00", align 1
@.str.45 = private unnamed_addr constant [43 x i8] c"Internal error, put_bits buffer too small\0A\00", align 1

; Function Attrs: inlinehint nounwind uwtable
define internal void @put_bits_no_assert(ptr noundef %0, i32 noundef %1, i32 noundef %2) #7 {
  %4 = alloca ptr, align 8
  %5 = alloca i32, align 4
  %6 = alloca i32, align 4
  %7 = alloca i32, align 4
  %8 = alloca i32, align 4
  store ptr %0, ptr %4, align 8, !tbaa !141
  store i32 %1, ptr %5, align 4, !tbaa !49
  store i32 %2, ptr %6, align 4, !tbaa !49
  call void @llvm.lifetime.start.p0(i64 4, ptr %7) #13
  call void @llvm.lifetime.start.p0(i64 4, ptr %8) #13
  %9 = load ptr, ptr %4, align 8, !tbaa !141
  %10 = getelementptr inbounds nuw %struct.PutBitContext, ptr %9, i32 0, i32 0
  %11 = load i32, ptr %10, align 8, !tbaa !144
  store i32 %11, ptr %7, align 4, !tbaa !49
  %12 = load ptr, ptr %4, align 8, !tbaa !141
  %13 = getelementptr inbounds nuw %struct.PutBitContext, ptr %12, i32 0, i32 1
  %14 = load i32, ptr %13, align 4, !tbaa !143
  store i32 %14, ptr %8, align 4, !tbaa !49
  %15 = load i32, ptr %5, align 4, !tbaa !49
  %16 = load i32, ptr %8, align 4, !tbaa !49
  %17 = icmp slt i32 %15, %16
  br i1 %17, label %18, label %27

18:                                               ; preds = %3
  %19 = load i32, ptr %7, align 4, !tbaa !49
  %20 = load i32, ptr %5, align 4, !tbaa !49
  %21 = shl i32 %19, %20
  %22 = load i32, ptr %6, align 4, !tbaa !49
  %23 = or i32 %21, %22
  store i32 %23, ptr %7, align 4, !tbaa !49
  %24 = load i32, ptr %5, align 4, !tbaa !49
  %25 = load i32, ptr %8, align 4, !tbaa !49
  %26 = sub nsw i32 %25, %24
  store i32 %26, ptr %8, align 4, !tbaa !49
  br label %65

27:                                               ; preds = %3
  %28 = load i32, ptr %8, align 4, !tbaa !49
  %29 = load i32, ptr %7, align 4, !tbaa !49
  %30 = shl i32 %29, %28
  store i32 %30, ptr %7, align 4, !tbaa !49
  %31 = load i32, ptr %6, align 4, !tbaa !49
  %32 = load i32, ptr %5, align 4, !tbaa !49
  %33 = load i32, ptr %8, align 4, !tbaa !49
  %34 = sub nsw i32 %32, %33
  %35 = lshr i32 %31, %34
  %36 = load i32, ptr %7, align 4, !tbaa !49
  %37 = or i32 %36, %35
  store i32 %37, ptr %7, align 4, !tbaa !49
  %38 = load ptr, ptr %4, align 8, !tbaa !141
  %39 = getelementptr inbounds nuw %struct.PutBitContext, ptr %38, i32 0, i32 4
  %40 = load ptr, ptr %39, align 8, !tbaa !146
  %41 = load ptr, ptr %4, align 8, !tbaa !141
  %42 = getelementptr inbounds nuw %struct.PutBitContext, ptr %41, i32 0, i32 3
  %43 = load ptr, ptr %42, align 8, !tbaa !145
  %44 = ptrtoint ptr %40 to i64
  %45 = ptrtoint ptr %43 to i64
  %46 = sub i64 %44, %45
  %47 = icmp uge i64 %46, 4
  br i1 %47, label %48, label %58

48:                                               ; preds = %27
  %49 = load i32, ptr %7, align 4, !tbaa !49
  %50 = call i32 @av_bswap32(i32 noundef %49) #14
  %51 = load ptr, ptr %4, align 8, !tbaa !141
  %52 = getelementptr inbounds nuw %struct.PutBitContext, ptr %51, i32 0, i32 3
  %53 = load ptr, ptr %52, align 8, !tbaa !145
  store i32 %50, ptr %53, align 1, !tbaa !125
  %54 = load ptr, ptr %4, align 8, !tbaa !141
  %55 = getelementptr inbounds nuw %struct.PutBitContext, ptr %54, i32 0, i32 3
  %56 = load ptr, ptr %55, align 8, !tbaa !145
  %57 = getelementptr inbounds nuw i8, ptr %56, i64 4
  store ptr %57, ptr %55, align 8, !tbaa !145
  br label %59

58:                                               ; preds = %27
  call void (ptr, i32, ptr, ...) @av_log(ptr noundef null, i32 noundef 16, ptr noundef @.str.45)
  br label %59

59:                                               ; preds = %58, %48
  %60 = load i32, ptr %5, align 4, !tbaa !49
  %61 = sub nsw i32 32, %60
  %62 = load i32, ptr %8, align 4, !tbaa !49
  %63 = add nsw i32 %62, %61
  store i32 %63, ptr %8, align 4, !tbaa !49
  %64 = load i32, ptr %6, align 4, !tbaa !49
  store i32 %64, ptr %7, align 4, !tbaa !49
  br label %65

65:                                               ; preds = %59, %18
  %66 = load i32, ptr %7, align 4, !tbaa !49
  %67 = load ptr, ptr %4, align 8, !tbaa !141
  %68 = getelementptr inbounds nuw %struct.PutBitContext, ptr %67, i32 0, i32 0
  store i32 %66, ptr %68, align 8, !tbaa !144
  %69 = load i32, ptr %8, align 4, !tbaa !49
  %70 = load ptr, ptr %4, align 8, !tbaa !141
  %71 = getelementptr inbounds nuw %struct.PutBitContext, ptr %70, i32 0, i32 1
  store i32 %69, ptr %71, align 4, !tbaa !143
  call void @llvm.lifetime.end.p0(i64 4, ptr %8) #13
  call void @llvm.lifetime.end.p0(i64 4, ptr %7) #13
  ret void
}

; Function Attrs: nounwind uwtable
define internal void @put_bits32(ptr noundef %0, i32 noundef %1) #6 {
  %3 = alloca ptr, align 8
  %4 = alloca i32, align 4
  %5 = alloca i32, align 4
  %6 = alloca i32, align 4
  store ptr %0, ptr %3, align 8, !tbaa !141
  store i32 %1, ptr %4, align 4, !tbaa !49
  call void @llvm.lifetime.start.p0(i64 4, ptr %5) #13
  call void @llvm.lifetime.start.p0(i64 4, ptr %6) #13
  %7 = load ptr, ptr %3, align 8, !tbaa !141
  %8 = getelementptr inbounds nuw %struct.PutBitContext, ptr %7, i32 0, i32 0
  %9 = load i32, ptr %8, align 8, !tbaa !144
  store i32 %9, ptr %5, align 4, !tbaa !49
  %10 = load ptr, ptr %3, align 8, !tbaa !141
  %11 = getelementptr inbounds nuw %struct.PutBitContext, ptr %10, i32 0, i32 1
  %12 = load i32, ptr %11, align 4, !tbaa !143
  store i32 %12, ptr %6, align 4, !tbaa !49
  %13 = load i32, ptr %5, align 4, !tbaa !49
  %14 = zext i32 %13 to i64
  %15 = load i32, ptr %6, align 4, !tbaa !49
  %16 = zext i32 %15 to i64
  %17 = shl i64 %14, %16
  %18 = trunc i64 %17 to i32
  store i32 %18, ptr %5, align 4, !tbaa !49
  %19 = load i32, ptr %4, align 4, !tbaa !49
  %20 = load i32, ptr %6, align 4, !tbaa !49
  %21 = sub nsw i32 32, %20
  %22 = lshr i32 %19, %21
  %23 = load i32, ptr %5, align 4, !tbaa !49
  %24 = or i32 %23, %22
  store i32 %24, ptr %5, align 4, !tbaa !49
  %25 = load ptr, ptr %3, align 8, !tbaa !141
  %26 = getelementptr inbounds nuw %struct.PutBitContext, ptr %25, i32 0, i32 4
  %27 = load ptr, ptr %26, align 8, !tbaa !146
  %28 = load ptr, ptr %3, align 8, !tbaa !141
  %29 = getelementptr inbounds nuw %struct.PutBitContext, ptr %28, i32 0, i32 3
  %30 = load ptr, ptr %29, align 8, !tbaa !145
  %31 = ptrtoint ptr %27 to i64
  %32 = ptrtoint ptr %30 to i64
  %33 = sub i64 %31, %32
  %34 = icmp uge i64 %33, 4
  br i1 %34, label %35, label %45

35:                                               ; preds = %2
  %36 = load i32, ptr %5, align 4, !tbaa !49
  %37 = call i32 @av_bswap32(i32 noundef %36) #14
  %38 = load ptr, ptr %3, align 8, !tbaa !141
  %39 = getelementptr inbounds nuw %struct.PutBitContext, ptr %38, i32 0, i32 3
  %40 = load ptr, ptr %39, align 8, !tbaa !145
  store i32 %37, ptr %40, align 1, !tbaa !125
  %41 = load ptr, ptr %3, align 8, !tbaa !141
  %42 = getelementptr inbounds nuw %struct.PutBitContext, ptr %41, i32 0, i32 3
  %43 = load ptr, ptr %42, align 8, !tbaa !145
  %44 = getelementptr inbounds nuw i8, ptr %43, i64 4
  store ptr %44, ptr %42, align 8, !tbaa !145
  br label %46

45:                                               ; preds = %2
  call void (ptr, i32, ptr, ...) @av_log(ptr noundef null, i32 noundef 16, ptr noundef @.str.45)
  br label %46

46:                                               ; preds = %45, %35
  %47 = load i32, ptr %4, align 4, !tbaa !49
  store i32 %47, ptr %5, align 4, !tbaa !49
  %48 = load i32, ptr %5, align 4, !tbaa !49
  %49 = load ptr, ptr %3, align 8, !tbaa !141
  %50 = getelementptr inbounds nuw %struct.PutBitContext, ptr %49, i32 0, i32 0
  store i32 %48, ptr %50, align 8, !tbaa !144
  %51 = load i32, ptr %6, align 4, !tbaa !49
  %52 = load ptr, ptr %3, align 8, !tbaa !141
  %53 = getelementptr inbounds nuw %struct.PutBitContext, ptr %52, i32 0, i32 1
  store i32 %51, ptr %53, align 4, !tbaa !143
  call void @llvm.lifetime.end.p0(i64 4, ptr %6) #13
  call void @llvm.lifetime.end.p0(i64 4, ptr %5) #13
  ret void
}

; Function Attrs: alwaysinline nounwind willreturn memory(none) uwtable
define internal i32 @av_bswap32(i32 noundef %0) #3 {
  %2 = alloca i32, align 4
  store i32 %0, ptr %2, align 4, !tbaa !49
  %3 = load i32, ptr %2, align 4, !tbaa !49
  %4 = shl i32 %3, 8
  %5 = and i32 %4, 65280
  %6 = load i32, ptr %2, align 4, !tbaa !49
  %7 = lshr i32 %6, 8
  %8 = and i32 %7, 255
  %9 = or i32 %5, %8
  %10 = shl i32 %9, 16
  %11 = load i32, ptr %2, align 4, !tbaa !49
  %12 = lshr i32 %11, 16
  %13 = shl i32 %12, 8
  %14 = and i32 %13, 65280
  %15 = load i32, ptr %2, align 4, !tbaa !49
  %16 = lshr i32 %15, 16
  %17 = lshr i32 %16, 8
  %18 = and i32 %17, 255
  %19 = or i32 %14, %18
  %20 = or i32 %10, %19
  ret i32 %20
}

; Function Attrs: inlinehint nounwind uwtable
define internal void @put_bits(ptr noundef %0, i32 noundef %1, i32 noundef %2) #7 {
  %4 = alloca ptr, align 8
  %5 = alloca i32, align 4
  %6 = alloca i32, align 4
  store ptr %0, ptr %4, align 8, !tbaa !141
  store i32 %1, ptr %5, align 4, !tbaa !49
  store i32 %2, ptr %6, align 4, !tbaa !49
  %7 = load ptr, ptr %4, align 8, !tbaa !141
  %8 = load i32, ptr %5, align 4, !tbaa !49
  %9 = load i32, ptr %6, align 4, !tbaa !49
  call void @put_bits_no_assert(ptr noundef %7, i32 noundef %8, i32 noundef %9)
  ret void
}

; Function Attrs: inlinehint nounwind uwtable
define internal i32 @put_bytes_count(ptr noundef %0, i32 noundef %1) #7 {
  %3 = alloca ptr, align 8
  %4 = alloca i32, align 4
  store ptr %0, ptr %3, align 8, !tbaa !141
  store i32 %1, ptr %4, align 4, !tbaa !49
  %5 = load ptr, ptr %3, align 8, !tbaa !141
  %6 = getelementptr inbounds nuw %struct.PutBitContext, ptr %5, i32 0, i32 3
  %7 = load ptr, ptr %6, align 8, !tbaa !145
  %8 = load ptr, ptr %3, align 8, !tbaa !141
  %9 = getelementptr inbounds nuw %struct.PutBitContext, ptr %8, i32 0, i32 2
  %10 = load ptr, ptr %9, align 8, !tbaa !148
  %11 = ptrtoint ptr %7 to i64
  %12 = ptrtoint ptr %10 to i64
  %13 = sub i64 %11, %12
  %14 = load ptr, ptr %3, align 8, !tbaa !141
  %15 = getelementptr inbounds nuw %struct.PutBitContext, ptr %14, i32 0, i32 1
  %16 = load i32, ptr %15, align 4, !tbaa !143
  %17 = sub nsw i32 32, %16
  %18 = load i32, ptr %4, align 4, !tbaa !49
  %19 = icmp ne i32 %18, 0
  %20 = select i1 %19, i32 7, i32 0
  %21 = add nsw i32 %17, %20
  %22 = ashr i32 %21, 3
  %23 = sext i32 %22 to i64
  %24 = add nsw i64 %13, %23
  %25 = trunc i64 %24 to i32
  ret i32 %25
}

; Function Attrs: inlinehint nounwind uwtable
define internal void @align_put_bits(ptr noundef %0) #7 {
  %2 = alloca ptr, align 8
  store ptr %0, ptr %2, align 8, !tbaa !141
  %3 = load ptr, ptr %2, align 8, !tbaa !141
  %4 = load ptr, ptr %2, align 8, !tbaa !141
  %5 = getelementptr inbounds nuw %struct.PutBitContext, ptr %4, i32 0, i32 1
  %6 = load i32, ptr %5, align 4, !tbaa !143
  %7 = and i32 %6, 7
  call void @put_bits(ptr noundef %3, i32 noundef %7, i32 noundef 0)
  ret void
}

; Function Attrs: nounwind uwtable
define internal void @encode_parse_info(ptr noundef %0, i32 noundef %1) #6 {
  %3 = alloca ptr, align 8
  %4 = alloca i32, align 4
  %5 = alloca i32, align 4
  %6 = alloca i32, align 4
  store ptr %0, ptr %3, align 8, !tbaa !29
  store i32 %1, ptr %4, align 4, !tbaa !49
  call void @llvm.lifetime.start.p0(i64 4, ptr %5) #13
  call void @llvm.lifetime.start.p0(i64 4, ptr %6) #13
  %7 = load ptr, ptr %3, align 8, !tbaa !29
  %8 = getelementptr inbounds nuw %struct.VC2EncContext, ptr %7, i32 0, i32 1
  call void @align_put_bits(ptr noundef %8)
  %9 = load ptr, ptr %3, align 8, !tbaa !29
  %10 = getelementptr inbounds nuw %struct.VC2EncContext, ptr %9, i32 0, i32 1
  %11 = call i32 @put_bytes_count(ptr noundef %10, i32 noundef 0)
  store i32 %11, ptr %5, align 4, !tbaa !49
  %12 = load ptr, ptr %3, align 8, !tbaa !29
  %13 = getelementptr inbounds nuw %struct.VC2EncContext, ptr %12, i32 0, i32 1
  call void @ff_put_string(ptr noundef %13, ptr noundef @.str.44, i32 noundef 0)
  %14 = load ptr, ptr %3, align 8, !tbaa !29
  %15 = getelementptr inbounds nuw %struct.VC2EncContext, ptr %14, i32 0, i32 1
  %16 = load i32, ptr %4, align 4, !tbaa !49
  call void @put_bits(ptr noundef %15, i32 noundef 8, i32 noundef %16)
  %17 = load i32, ptr %5, align 4, !tbaa !49
  %18 = load ptr, ptr %3, align 8, !tbaa !29
  %19 = getelementptr inbounds nuw %struct.VC2EncContext, ptr %18, i32 0, i32 36
  %20 = load i32, ptr %19, align 4, !tbaa !120
  %21 = sub i32 %17, %20
  store i32 %21, ptr %6, align 4, !tbaa !49
  %22 = load i32, ptr %6, align 4, !tbaa !49
  %23 = call i32 @av_bswap32(i32 noundef %22) #14
  %24 = load ptr, ptr %3, align 8, !tbaa !29
  %25 = getelementptr inbounds nuw %struct.VC2EncContext, ptr %24, i32 0, i32 1
  %26 = getelementptr inbounds nuw %struct.PutBitContext, ptr %25, i32 0, i32 2
  %27 = load ptr, ptr %26, align 8, !tbaa !177
  %28 = load ptr, ptr %3, align 8, !tbaa !29
  %29 = getelementptr inbounds nuw %struct.VC2EncContext, ptr %28, i32 0, i32 36
  %30 = load i32, ptr %29, align 4, !tbaa !120
  %31 = zext i32 %30 to i64
  %32 = getelementptr inbounds nuw i8, ptr %27, i64 %31
  %33 = getelementptr inbounds i8, ptr %32, i64 5
  store i32 %23, ptr %33, align 1, !tbaa !125
  %34 = load i32, ptr %5, align 4, !tbaa !49
  %35 = load ptr, ptr %3, align 8, !tbaa !29
  %36 = getelementptr inbounds nuw %struct.VC2EncContext, ptr %35, i32 0, i32 36
  store i32 %34, ptr %36, align 4, !tbaa !120
  %37 = load ptr, ptr %3, align 8, !tbaa !29
  %38 = getelementptr inbounds nuw %struct.VC2EncContext, ptr %37, i32 0, i32 1
  %39 = load i32, ptr %4, align 4, !tbaa !49
  %40 = icmp eq i32 %39, 16
  %41 = select i1 %40, i32 13, i32 0
  call void @put_bits32(ptr noundef %38, i32 noundef %41)
  %42 = load ptr, ptr %3, align 8, !tbaa !29
  %43 = getelementptr inbounds nuw %struct.VC2EncContext, ptr %42, i32 0, i32 1
  %44 = load ptr, ptr %3, align 8, !tbaa !29
  %45 = getelementptr inbounds nuw %struct.VC2EncContext, ptr %44, i32 0, i32 37
  %46 = load i32, ptr %45, align 8, !tbaa !119
  %47 = icmp eq i32 %46, 16
  br i1 %47, label %48, label %49

48:                                               ; preds = %2
  br label %51

49:                                               ; preds = %2
  %50 = load i32, ptr %6, align 4, !tbaa !49
  br label %51

51:                                               ; preds = %49, %48
  %52 = phi i32 [ 13, %48 ], [ %50, %49 ]
  call void @put_bits32(ptr noundef %43, i32 noundef %52)
  %53 = load i32, ptr %4, align 4, !tbaa !49
  %54 = load ptr, ptr %3, align 8, !tbaa !29
  %55 = getelementptr inbounds nuw %struct.VC2EncContext, ptr %54, i32 0, i32 37
  store i32 %53, ptr %55, align 8, !tbaa !119
  call void @llvm.lifetime.end.p0(i64 4, ptr %6) #13
  call void @llvm.lifetime.end.p0(i64 4, ptr %5) #13
  ret void
}