; Function Attrs: nounwind uwtable
define internal fastcc void @encode_parse_info(ptr noundef %0, i32 noundef range(i32 0, 233) %1) unnamed_addr #6 {
  %3 = getelementptr inbounds nuw i8, ptr %0, i64 8
  %4 = getelementptr inbounds nuw i8, ptr %0, i64 12
  %5 = load i32, ptr %4, align 4, !tbaa !107
  %6 = load i32, ptr %3, align 8, !tbaa !108
  %7 = icmp sgt i32 %5, 7
  br i1 %7, label %8, label %12

8:                                                ; preds = %2
  %9 = and i32 %5, 7
  %10 = shl i32 %6, %9
  %11 = and i32 %5, 2147483640
  br label %align_put_bits.exit

12:                                               ; preds = %2
  %13 = getelementptr inbounds nuw i8, ptr %0, i64 32
  %14 = load ptr, ptr %13, align 8, !tbaa !110
  %15 = getelementptr inbounds nuw i8, ptr %0, i64 24
  %16 = load ptr, ptr %15, align 8, !tbaa !109
  %17 = ptrtoint ptr %14 to i64
  %18 = ptrtoint ptr %16 to i64
  %19 = sub i64 %17, %18
  %20 = icmp ugt i64 %19, 3
  br i1 %20, label %21, label %26

21:                                               ; preds = %12
  %22 = shl i32 %6, %5
  %23 = tail call i32 @llvm.bswap.i32(i32 %22)
  store i32 %23, ptr %16, align 1, !tbaa !95
  %24 = load ptr, ptr %15, align 8, !tbaa !109
  %25 = getelementptr inbounds nuw i8, ptr %24, i64 4
  store ptr %25, ptr %15, align 8, !tbaa !109
  br label %27

26:                                               ; preds = %12
  tail call void (ptr, i32, ptr, ...) @av_log(ptr noundef null, i32 noundef 16, ptr noundef nonnull @.str.45) #13
  br label %27

27:                                               ; preds = %26, %21
  %reass.sub.i.i = and i32 %5, -8
  %28 = add i32 %reass.sub.i.i, 32
  br label %align_put_bits.exit

align_put_bits.exit:                              ; preds = %8, %27
  %.026.i.i.i = phi i32 [ %10, %8 ], [ 0, %27 ]
  %.0.i.i.i = phi i32 [ %11, %8 ], [ %28, %27 ]
  store i32 %.026.i.i.i, ptr %3, align 8, !tbaa !108
  store i32 %.0.i.i.i, ptr %4, align 4, !tbaa !107
  %29 = getelementptr inbounds nuw i8, ptr %0, i64 24
  %30 = load ptr, ptr %29, align 8, !tbaa !109
  %31 = getelementptr inbounds nuw i8, ptr %0, i64 16
  %32 = load ptr, ptr %31, align 8, !tbaa !112
  %33 = ptrtoint ptr %30 to i64
  %34 = ptrtoint ptr %32 to i64
  %35 = sub i64 %33, %34
  %36 = sub nsw i32 32, %.0.i.i.i
  %37 = ashr i32 %36, 3
  %38 = trunc i64 %35 to i32
  %39 = add i32 %37, %38
  tail call void @ff_put_string(ptr noundef nonnull %3, ptr noundef nonnull @.str.44, i32 noundef 0) #13
  %40 = load i32, ptr %3, align 8, !tbaa !108
  %41 = load i32, ptr %4, align 4, !tbaa !107
  %42 = icmp sgt i32 %41, 8
  br i1 %42, label %43, label %46

43:                                               ; preds = %align_put_bits.exit
  %44 = shl i32 %40, 8
  %45 = or disjoint i32 %44, %1
  br label %put_bits.exit

46:                                               ; preds = %align_put_bits.exit
  %47 = getelementptr inbounds nuw i8, ptr %0, i64 32
  %48 = load ptr, ptr %47, align 8, !tbaa !110
  %49 = load ptr, ptr %29, align 8, !tbaa !109
  %50 = ptrtoint ptr %48 to i64
  %51 = ptrtoint ptr %49 to i64
  %52 = sub i64 %50, %51
  %53 = icmp ugt i64 %52, 3
  br i1 %53, label %54, label %62

54:                                               ; preds = %46
  %55 = shl i32 %40, %41
  %56 = sub nsw i32 8, %41
  %57 = lshr i32 %1, %56
  %58 = or i32 %57, %55
  %59 = tail call i32 @llvm.bswap.i32(i32 %58)
  store i32 %59, ptr %49, align 1, !tbaa !95
  %60 = load ptr, ptr %29, align 8, !tbaa !109
  %61 = getelementptr inbounds nuw i8, ptr %60, i64 4
  store ptr %61, ptr %29, align 8, !tbaa !109
  br label %put_bits.exit

62:                                               ; preds = %46
  tail call void (ptr, i32, ptr, ...) @av_log(ptr noundef null, i32 noundef 16, ptr noundef nonnull @.str.45) #13
  br label %put_bits.exit

put_bits.exit:                                    ; preds = %54, %62, %43
  %.sink = phi i32 [ -8, %43 ], [ 24, %62 ], [ 24, %54 ]
  %.026.i.i = phi i32 [ %45, %43 ], [ %1, %62 ], [ %1, %54 ]
  %63 = add nsw i32 %41, %.sink
  store i32 %.026.i.i, ptr %3, align 8, !tbaa !108
  store i32 %63, ptr %4, align 4, !tbaa !107
  %64 = getelementptr inbounds nuw i8, ptr %0, i64 2996
  %65 = load i32, ptr %64, align 4, !tbaa !102
  %66 = sub i32 %39, %65
  %67 = tail call i32 @llvm.bswap.i32(i32 %66)
  %68 = load ptr, ptr %31, align 8, !tbaa !170
  %69 = zext i32 %65 to i64
  %70 = getelementptr inbounds nuw i8, ptr %68, i64 %69
  %71 = getelementptr inbounds nuw i8, ptr %70, i64 5
  store i32 %67, ptr %71, align 1, !tbaa !95
  store i32 %39, ptr %64, align 4, !tbaa !102
  %72 = icmp eq i32 %1, 16
  %73 = select i1 %72, i32 13, i32 0
  %74 = load i32, ptr %4, align 4, !tbaa !107
  %75 = getelementptr inbounds nuw i8, ptr %0, i64 32
  %76 = load ptr, ptr %75, align 8, !tbaa !110
  %77 = load ptr, ptr %29, align 8, !tbaa !109
  %78 = ptrtoint ptr %76 to i64
  %79 = ptrtoint ptr %77 to i64
  %80 = sub i64 %78, %79
  %81 = icmp ugt i64 %80, 3
  br i1 %81, label %82, label %94

82:                                               ; preds = %put_bits.exit
  %83 = load i32, ptr %3, align 8, !tbaa !108
  %84 = zext i32 %83 to i64
  %85 = zext nneg i32 %74 to i64
  %86 = shl i64 %84, %85
  %87 = trunc i64 %86 to i32
  %88 = sub nsw i32 32, %74
  %89 = lshr i32 %73, %88
  %90 = or i32 %89, %87
  %91 = tail call i32 @llvm.bswap.i32(i32 %90)
  store i32 %91, ptr %77, align 1, !tbaa !95
  %92 = load ptr, ptr %29, align 8, !tbaa !109
  %93 = getelementptr inbounds nuw i8, ptr %92, i64 4
  store ptr %93, ptr %29, align 8, !tbaa !109
  br label %put_bits32.exit

94:                                               ; preds = %put_bits.exit
  tail call void (ptr, i32, ptr, ...) @av_log(ptr noundef null, i32 noundef 16, ptr noundef nonnull @.str.45) #13
  %.pre = load ptr, ptr %29, align 8, !tbaa !109
  br label %put_bits32.exit

put_bits32.exit:                                  ; preds = %82, %94
  %95 = phi ptr [ %93, %82 ], [ %.pre, %94 ]
  store i32 %73, ptr %3, align 8, !tbaa !108
  store i32 %74, ptr %4, align 4, !tbaa !107
  %96 = getelementptr inbounds nuw i8, ptr %0, i64 3000
  %97 = load i32, ptr %96, align 8, !tbaa !101
  %98 = icmp eq i32 %97, 16
  %99 = select i1 %98, i32 13, i32 %66
  %100 = load ptr, ptr %75, align 8, !tbaa !110
  %101 = ptrtoint ptr %100 to i64
  %102 = ptrtoint ptr %95 to i64
  %103 = sub i64 %101, %102
  %104 = icmp ugt i64 %103, 3
  br i1 %104, label %105, label %116

105:                                              ; preds = %put_bits32.exit
  %106 = zext nneg i32 %73 to i64
  %107 = zext nneg i32 %74 to i64
  %108 = shl i64 %106, %107
  %109 = trunc i64 %108 to i32
  %110 = sub nsw i32 32, %74
  %111 = lshr i32 %99, %110
  %112 = or i32 %111, %109
  %113 = tail call i32 @llvm.bswap.i32(i32 %112)
  store i32 %113, ptr %95, align 1, !tbaa !95
  %114 = load ptr, ptr %29, align 8, !tbaa !109
  %115 = getelementptr inbounds nuw i8, ptr %114, i64 4
  store ptr %115, ptr %29, align 8, !tbaa !109
  br label %put_bits32.exit18

116:                                              ; preds = %put_bits32.exit
  tail call void (ptr, i32, ptr, ...) @av_log(ptr noundef null, i32 noundef 16, ptr noundef nonnull @.str.45) #13
  br label %put_bits32.exit18

put_bits32.exit18:                                ; preds = %105, %116
  store i32 %99, ptr %3, align 8, !tbaa !108
  store i32 %74, ptr %4, align 4, !tbaa !107
  store i32 %1, ptr %96, align 8, !tbaa !101
  ret void
}